target datalayout = "e-m:e-p270:32:32-p271:32:32-p272:64:64-i64:64-i128:128-f80:128-n8:16:32:64-S128"
target triple = "x86_64-pc-linux-gnu"

%struct._zend_executor_globals = type { %struct._zval_struct, %struct._zval_struct, [32 x ptr], ptr, ptr, %struct._zend_array, %struct._zend_array, ptr, i32, i8, %struct._zval_struct, i32, ptr, ptr, ptr, ptr, ptr, ptr, i64, ptr, ptr, i32, ptr, i32, i64, i32, i32, i32, i8, i8, %struct.zend_atomic_bool_s, %struct.zend_atomic_bool_s, ptr, i64, ptr, ptr, %struct._zend_array, %struct._zend_array, i32, i8, %struct._zval_struct, %struct._zval_struct, %struct._zend_stack, %struct._zend_stack, %struct._zend_stack, ptr, i32, i32, i64, ptr, ptr, ptr, %struct._zend_objects_store, %struct._zend_lazy_objects_store, ptr, ptr, ptr, [3 x %struct._zend_op], ptr, i8, i8, i64, i32, i32, ptr, [16 x %struct._HashTableIterator], ptr, %union._zend_function, %struct._zend_op, %struct._zend_array, i64, %struct.zend_get_gc_buffer, ptr, ptr, ptr, i64, i8, i32, ptr, ptr, i64, %struct._zend_call_stack, i64, i64, %struct._zend_strtod_state, [6 x ptr] }
%struct.zend_atomic_bool_s = type { i8 }
%struct._zval_struct = type { %union._zend_value, %union.anon, %union.anon.2 }
%union._zend_value = type { i64 }
%union.anon = type { i32 }
%union.anon.2 = type { i32 }
%struct._zend_stack = type { i32, i32, i32, ptr }
%struct._zend_objects_store = type { ptr, i32, i32, i32 }
%struct._zend_lazy_objects_store = type { %struct._zend_array }
%struct._HashTableIterator = type { ptr, i32, i32 }
%union._zend_function = type { %struct._zend_op_array }
%struct._zend_op_array = type { i8, [3 x i8], i32, ptr, ptr, ptr, i32, i32, ptr, ptr, ptr, ptr, i32, ptr, i32, i32, i32, ptr, ptr, ptr, ptr, ptr, i32, i32, ptr, ptr, ptr, i32, i32, i32, i32, ptr, ptr, [6 x ptr] }
%struct._zend_op = type { ptr, %union._znode_op, %union._znode_op, %union._znode_op, i32, i32, i8, i8, i8, i8 }
%union._znode_op = type { i32 }
%struct._zend_array = type { %struct._zend_refcounted_h, %union.anon.4, i32, %union.anon.6, i32, i32, i32, i32, i64, ptr }
%struct._zend_refcounted_h = type { i32, %union.anon.3 }
%union.anon.3 = type { i32 }
%union.anon.4 = type { i32 }
%union.anon.6 = type { ptr }
%struct.zend_get_gc_buffer = type { ptr, ptr, ptr }
%struct._zend_call_stack = type { ptr, i64 }
%struct._zend_strtod_state = type { [8 x ptr], ptr, ptr }
%struct._zend_strtod_bigint = type { ptr, i32, i32, i32, i32, [1 x i32] }

@executor_globals = external global %struct._zend_executor_globals, align 8
@.str.8 = private unnamed_addr constant [35 x i8] c"Balloc() failed to allocate memory\00", align 1
@pow5mult.p05 = internal constant [3 x i32] [i32 5, i32 25, i32 125], align 4

; Function Attrs: nounwind uwtable
define internal ptr @Balloc(i32 noundef %0) #0 {
  %2 = alloca i32, align 4
  %3 = alloca i32, align 4
  %4 = alloca ptr, align 8
  store i32 %0, ptr %2, align 4, !tbaa !4
  call void @llvm.lifetime.start.p0(i64 4, ptr %3) #7
  call void @llvm.lifetime.start.p0(i64 8, ptr %4) #7
  %5 = load i32, ptr %2, align 4, !tbaa !4
  %6 = icmp sle i32 %5, 7
  br i1 %6, label %7, label %20

7:                                                ; preds = %1
  %8 = load i32, ptr %2, align 4, !tbaa !4
  %9 = sext i32 %8 to i64
  %10 = getelementptr inbounds [8 x ptr], ptr getelementptr inbounds nuw (%struct._zend_executor_globals, ptr @executor_globals, i32 0, i32 84), i64 0, i64 %9
  %11 = load ptr, ptr %10, align 8, !tbaa !11
  store ptr %11, ptr %4, align 8, !tbaa !11
  %12 = icmp ne ptr %11, null
  br i1 %12, label %13, label %20

13:                                               ; preds = %7
  %14 = load ptr, ptr %4, align 8, !tbaa !11
  %15 = getelementptr inbounds nuw %struct._zend_strtod_bigint, ptr %14, i32 0, i32 0
  %16 = load ptr, ptr %15, align 8, !tbaa !13
  %17 = load i32, ptr %2, align 4, !tbaa !4
  %18 = sext i32 %17 to i64
  %19 = getelementptr inbounds [8 x ptr], ptr getelementptr inbounds nuw (%struct._zend_executor_globals, ptr @executor_globals, i32 0, i32 84), i64 0, i64 %18
  store ptr %16, ptr %19, align 8, !tbaa !11
  br label %39

20:                                               ; preds = %7, %1
  %21 = load i32, ptr %2, align 4, !tbaa !4
  %22 = shl i32 1, %21
  store i32 %22, ptr %3, align 4, !tbaa !4
  %23 = load i32, ptr %3, align 4, !tbaa !4
  %24 = sub nsw i32 %23, 1
  %25 = sext i32 %24 to i64
  %26 = mul i64 %25, 4
  %27 = add i64 32, %26
  %28 = call noalias ptr @malloc(i64 noundef %27) #8
  store ptr %28, ptr %4, align 8, !tbaa !11
  %29 = load ptr, ptr %4, align 8, !tbaa !11
  %30 = icmp ne ptr %29, null
  br i1 %30, label %32, label %31

31:                                               ; preds = %20
  call void (i32, ptr, ...) @zend_error_noreturn(i32 noundef 1, ptr noundef @.str.8) #9
  unreachable

32:                                               ; preds = %20
  %33 = load i32, ptr %2, align 4, !tbaa !4
  %34 = load ptr, ptr %4, align 8, !tbaa !11
  %35 = getelementptr inbounds nuw %struct._zend_strtod_bigint, ptr %34, i32 0, i32 1
  store i32 %33, ptr %35, align 8, !tbaa !63
  %36 = load i32, ptr %3, align 4, !tbaa !4
  %37 = load ptr, ptr %4, align 8, !tbaa !11
  %38 = getelementptr inbounds nuw %struct._zend_strtod_bigint, ptr %37, i32 0, i32 2
  store i32 %36, ptr %38, align 4, !tbaa !67
  br label %39

39:                                               ; preds = %32, %13
  %40 = load ptr, ptr %4, align 8, !tbaa !11
  %41 = getelementptr inbounds nuw %struct._zend_strtod_bigint, ptr %40, i32 0, i32 4
  store i32 0, ptr %41, align 4, !tbaa !64
  %42 = load ptr, ptr %4, align 8, !tbaa !11
  %43 = getelementptr inbounds nuw %struct._zend_strtod_bigint, ptr %42, i32 0, i32 3
  store i32 0, ptr %43, align 8, !tbaa !65
  %44 = load ptr, ptr %4, align 8, !tbaa !11
  call void @llvm.lifetime.end.p0(i64 8, ptr %4) #7
  call void @llvm.lifetime.end.p0(i64 4, ptr %3) #7
  ret ptr %44
}

; Function Attrs: nounwind uwtable
define internal void @Bfree(ptr noundef %0) #0 {
  %2 = alloca ptr, align 8
  store ptr %0, ptr %2, align 8, !tbaa !11
  %3 = load ptr, ptr %2, align 8, !tbaa !11
  %4 = icmp ne ptr %3, null
  br i1 %4, label %5, label %28

5:                                                ; preds = %1
  %6 = load ptr, ptr %2, align 8, !tbaa !11
  %7 = getelementptr inbounds nuw %struct._zend_strtod_bigint, ptr %6, i32 0, i32 1
  %8 = load i32, ptr %7, align 8, !tbaa !63
  %9 = icmp sgt i32 %8, 7
  br i1 %9, label %10, label %12

10:                                               ; preds = %5
  %11 = load ptr, ptr %2, align 8, !tbaa !11
  call void @free(ptr noundef %11) #7
  br label %27

12:                                               ; preds = %5
  %13 = load ptr, ptr %2, align 8, !tbaa !11
  %14 = getelementptr inbounds nuw %struct._zend_strtod_bigint, ptr %13, i32 0, i32 1
  %15 = load i32, ptr %14, align 8, !tbaa !63
  %16 = sext i32 %15 to i64
  %17 = getelementptr inbounds [8 x ptr], ptr getelementptr inbounds nuw (%struct._zend_executor_globals, ptr @executor_globals, i32 0, i32 84), i64 0, i64 %16
  %18 = load ptr, ptr %17, align 8, !tbaa !11
  %19 = load ptr, ptr %2, align 8, !tbaa !11
  %20 = getelementptr inbounds nuw %struct._zend_strtod_bigint, ptr %19, i32 0, i32 0
  store ptr %18, ptr %20, align 8, !tbaa !13
  %21 = load ptr, ptr %2, align 8, !tbaa !11
  %22 = load ptr, ptr %2, align 8, !tbaa !11
  %23 = getelementptr inbounds nuw %struct._zend_strtod_bigint, ptr %22, i32 0, i32 1
  %24 = load i32, ptr %23, align 8, !tbaa !63
  %25 = sext i32 %24 to i64
  %26 = getelementptr inbounds [8 x ptr], ptr getelementptr inbounds nuw (%struct._zend_executor_globals, ptr @executor_globals, i32 0, i32 84), i64 0, i64 %25
  store ptr %21, ptr %26, align 8, !tbaa !11
  br label %27

27:                                               ; preds = %12, %10
  br label %28

28:                                               ; preds = %27, %1
  ret void
}

; Function Attrs: nounwind uwtable
define internal ptr @i2b(i32 noundef %0) #0 {
  %2 = alloca i32, align 4
  %3 = alloca ptr, align 8
  store i32 %0, ptr %2, align 4, !tbaa !4
  call void @llvm.lifetime.start.p0(i64 8, ptr %3) #7
  %4 = call ptr @Balloc(i32 noundef 1)
  store ptr %4, ptr %3, align 8, !tbaa !11
  %5 = load i32, ptr %2, align 4, !tbaa !4
  %6 = load ptr, ptr %3, align 8, !tbaa !11
  %7 = getelementptr inbounds nuw %struct._zend_strtod_bigint, ptr %6, i32 0, i32 5
  %8 = getelementptr inbounds [1 x i32], ptr %7, i64 0, i64 0
  store i32 %5, ptr %8, align 8, !tbaa !4
  %9 = load ptr, ptr %3, align 8, !tbaa !11
  %10 = getelementptr inbounds nuw %struct._zend_strtod_bigint, ptr %9, i32 0, i32 4
  store i32 1, ptr %10, align 4, !tbaa !64
  %11 = load ptr, ptr %3, align 8, !tbaa !11
  call void @llvm.lifetime.end.p0(i64 8, ptr %3) #7
  ret ptr %11
}

; Function Attrs: nounwind uwtable
define internal ptr @pow5mult(ptr noundef %0, i32 noundef %1) #0 {
  %3 = alloca ptr, align 8
  %4 = alloca ptr, align 8
  %5 = alloca i32, align 4
  %6 = alloca ptr, align 8
  %7 = alloca ptr, align 8
  %8 = alloca ptr, align 8
  %9 = alloca i32, align 4
  %10 = alloca i32, align 4
  store ptr %0, ptr %4, align 8, !tbaa !11
  store i32 %1, ptr %5, align 4, !tbaa !4
  call void @llvm.lifetime.start.p0(i64 8, ptr %6) #7
  call void @llvm.lifetime.start.p0(i64 8, ptr %7) #7
  call void @llvm.lifetime.start.p0(i64 8, ptr %8) #7
  call void @llvm.lifetime.start.p0(i64 4, ptr %9) #7
  %11 = load i32, ptr %5, align 4, !tbaa !4
  %12 = and i32 %11, 3
  store i32 %12, ptr %9, align 4, !tbaa !4
  %13 = icmp ne i32 %12, 0
  br i1 %13, label %14, label %22

14:                                               ; preds = %2
  %15 = load ptr, ptr %4, align 8, !tbaa !11
  %16 = load i32, ptr %9, align 4, !tbaa !4
  %17 = sub nsw i32 %16, 1
  %18 = sext i32 %17 to i64
  %19 = getelementptr inbounds [3 x i32], ptr @pow5mult.p05, i64 0, i64 %18
  %20 = load i32, ptr %19, align 4, !tbaa !4
  %21 = call ptr @multadd(ptr noundef %15, i32 noundef %20, i32 noundef 0)
  store ptr %21, ptr %4, align 8, !tbaa !11
  br label %22

22:                                               ; preds = %14, %2
  %23 = load i32, ptr %5, align 4, !tbaa !4
  %24 = ashr i32 %23, 2
  store i32 %24, ptr %5, align 4, !tbaa !4
  %25 = icmp ne i32 %24, 0
  br i1 %25, label %28, label %26

26:                                               ; preds = %22
  %27 = load ptr, ptr %4, align 8, !tbaa !11
  store ptr %27, ptr %3, align 8
  store i32 1, ptr %10, align 4
  br label %68

28:                                               ; preds = %22
  %29 = load ptr, ptr getelementptr inbounds nuw (%struct._zend_strtod_state, ptr getelementptr inbounds nuw (%struct._zend_executor_globals, ptr @executor_globals, i32 0, i32 84), i32 0, i32 1), align 8, !tbaa !15
  store ptr %29, ptr %7, align 8, !tbaa !11
  %30 = icmp ne ptr %29, null
  br i1 %30, label %35, label %31

31:                                               ; preds = %28
  %32 = call ptr @i2b(i32 noundef 625)
  store ptr %32, ptr getelementptr inbounds nuw (%struct._zend_strtod_state, ptr getelementptr inbounds nuw (%struct._zend_executor_globals, ptr @executor_globals, i32 0, i32 84), i32 0, i32 1), align 8, !tbaa !15
  store ptr %32, ptr %7, align 8, !tbaa !11
  %33 = load ptr, ptr %7, align 8, !tbaa !11
  %34 = getelementptr inbounds nuw %struct._zend_strtod_bigint, ptr %33, i32 0, i32 0
  store ptr null, ptr %34, align 8, !tbaa !13
  br label %35

35:                                               ; preds = %31, %28
  br label %36

36:                                               ; preds = %64, %35
  %37 = load i32, ptr %5, align 4, !tbaa !4
  %38 = and i32 %37, 1
  %39 = icmp ne i32 %38, 0
  br i1 %39, label %40, label %46

40:                                               ; preds = %36
  %41 = load ptr, ptr %4, align 8, !tbaa !11
  %42 = load ptr, ptr %7, align 8, !tbaa !11
  %43 = call ptr @mult(ptr noundef %41, ptr noundef %42)
  store ptr %43, ptr %6, align 8, !tbaa !11
  %44 = load ptr, ptr %4, align 8, !tbaa !11
  call void @Bfree(ptr noundef %44)
  %45 = load ptr, ptr %6, align 8, !tbaa !11
  store ptr %45, ptr %4, align 8, !tbaa !11
  br label %46

46:                                               ; preds = %40, %36
  %47 = load i32, ptr %5, align 4, !tbaa !4
  %48 = ashr i32 %47, 1
  store i32 %48, ptr %5, align 4, !tbaa !4
  %49 = icmp ne i32 %48, 0
  br i1 %49, label %51, label %50

50:                                               ; preds = %46
  br label %66

51:                                               ; preds = %46
  %52 = load ptr, ptr %7, align 8, !tbaa !11
  %53 = getelementptr inbounds nuw %struct._zend_strtod_bigint, ptr %52, i32 0, i32 0
  %54 = load ptr, ptr %53, align 8, !tbaa !13
  store ptr %54, ptr %8, align 8, !tbaa !11
  %55 = icmp ne ptr %54, null
  br i1 %55, label %64, label %56

56:                                               ; preds = %51
  %57 = load ptr, ptr %7, align 8, !tbaa !11
  %58 = load ptr, ptr %7, align 8, !tbaa !11
  %59 = call ptr @mult(ptr noundef %57, ptr noundef %58)
  %60 = load ptr, ptr %7, align 8, !tbaa !11
  %61 = getelementptr inbounds nuw %struct._zend_strtod_bigint, ptr %60, i32 0, i32 0
  store ptr %59, ptr %61, align 8, !tbaa !13
  store ptr %59, ptr %8, align 8, !tbaa !11
  %62 = load ptr, ptr %8, align 8, !tbaa !11
  %63 = getelementptr inbounds nuw %struct._zend_strtod_bigint, ptr %62, i32 0, i32 0
  store ptr null, ptr %63, align 8, !tbaa !13
  br label %64

64:                                               ; preds = %56, %51
  %65 = load ptr, ptr %8, align 8, !tbaa !11
  store ptr %65, ptr %7, align 8, !tbaa !11
  br label %36

66:                                               ; preds = %50
  %67 = load ptr, ptr %4, align 8, !tbaa !11
  store ptr %67, ptr %3, align 8
  store i32 1, ptr %10, align 4
  br label %68

68:                                               ; preds = %66, %26
  call void @llvm.lifetime.end.p0(i64 4, ptr %9) #7
  call void @llvm.lifetime.end.p0(i64 8, ptr %8) #7
  call void @llvm.lifetime.end.p0(i64 8, ptr %7) #7
  call void @llvm.lifetime.end.p0(i64 8, ptr %6) #7
  %69 = load ptr, ptr %3, align 8
  ret ptr %69
}