; Function Attrs: nounwind uwtable
define internal fastcc ptr @pow5mult(ptr noundef %0, i32 noundef range(i32 1, -2147483648) %1) unnamed_addr #0 {
  %3 = and i32 %1, 3
  %.not = icmp eq i32 %3, 0
  br i1 %.not, label %10, label %4

4:                                                ; preds = %2
  %5 = add nsw i32 %3, -1
  %6 = zext nneg i32 %5 to i64
  %7 = getelementptr inbounds nuw [3 x i32], ptr @pow5mult.p05, i64 0, i64 %6
  %8 = load i32, ptr %7, align 4, !tbaa !51
  %9 = tail call fastcc ptr @multadd(ptr noundef %0, i32 noundef %8, i32 noundef 0)
  br label %10

10:                                               ; preds = %4, %2
  %.021 = phi ptr [ %9, %4 ], [ %0, %2 ]
  %11 = lshr i32 %1, 2
  %.not29 = icmp samesign ult i32 %1, 4
  br i1 %.not29, label %.loopexit, label %12

12:                                               ; preds = %10
  %13 = load ptr, ptr getelementptr inbounds nuw (i8, ptr @executor_globals, i64 1920), align 8, !tbaa !12
  %.not30 = icmp eq ptr %13, null
  br i1 %.not30, label %14, label %.preheader

14:                                               ; preds = %12
  %15 = load ptr, ptr getelementptr inbounds nuw (i8, ptr @executor_globals, i64 1864), align 8, !tbaa !4
  %.not.i.i = icmp eq ptr %15, null
  br i1 %.not.i.i, label %18, label %16

16:                                               ; preds = %14
  %17 = load ptr, ptr %15, align 8, !tbaa !9
  store ptr %17, ptr getelementptr inbounds nuw (i8, ptr @executor_globals, i64 1864), align 8, !tbaa !4
  br label %i2b.exit

18:                                               ; preds = %14
  %19 = tail call noalias dereferenceable_or_null(36) ptr @malloc(i64 noundef 36) #14
  %.not16.i.i = icmp eq ptr %19, null
  br i1 %.not16.i.i, label %20, label %21

20:                                               ; preds = %18
  tail call void (i32, ptr, ...) @zend_error_noreturn(i32 noundef 1, ptr noundef nonnull @.str.8) #15
  unreachable

21:                                               ; preds = %18
  %22 = getelementptr inbounds nuw i8, ptr %19, i64 8
  store i32 1, ptr %22, align 8, !tbaa !48
  %23 = getelementptr inbounds nuw i8, ptr %19, i64 12
  store i32 2, ptr %23, align 4, !tbaa !49
  br label %i2b.exit

i2b.exit:                                         ; preds = %16, %21
  %.0.i.i = phi ptr [ %15, %16 ], [ %19, %21 ]
  %24 = getelementptr inbounds nuw i8, ptr %.0.i.i, i64 20
  %25 = getelementptr inbounds nuw i8, ptr %.0.i.i, i64 16
  store i32 0, ptr %25, align 8, !tbaa !50
  %26 = getelementptr inbounds nuw i8, ptr %.0.i.i, i64 24
  store i32 625, ptr %26, align 8, !tbaa !51
  store i32 1, ptr %24, align 4, !tbaa !52
  store ptr %.0.i.i, ptr getelementptr inbounds nuw (i8, ptr @executor_globals, i64 1920), align 8, !tbaa !12
  br label %.sink.split

.sink.split:                                      ; preds = %i2b.exit, %43
  %.sink = phi ptr [ %44, %43 ], [ %.0.i.i, %i2b.exit ]
  %.023.ph = phi i32 [ %41, %43 ], [ %11, %i2b.exit ]
  %.122.ph = phi ptr [ %.2, %43 ], [ %.021, %i2b.exit ]
  store ptr null, ptr %.sink, align 8, !tbaa !9
  br label %.preheader

.preheader:                                       ; preds = %12, %.sink.split
  %.023.ph34 = phi i32 [ %.023.ph, %.sink.split ], [ %11, %12 ]
  %.122.ph35 = phi ptr [ %.122.ph, %.sink.split ], [ %.021, %12 ]
  %.1.ph = phi ptr [ %.sink, %.sink.split ], [ %13, %12 ]
  br label %27

27:                                               ; preds = %.preheader, %40
  %.023 = phi i32 [ %41, %40 ], [ %.023.ph34, %.preheader ]
  %.122 = phi ptr [ %.2, %40 ], [ %.122.ph35, %.preheader ]
  %.1 = phi ptr [ %42, %40 ], [ %.1.ph, %.preheader ]
  %28 = and i32 %.023, 1
  %.not31 = icmp eq i32 %28, 0
  br i1 %.not31, label %Bfree.exit, label %29

29:                                               ; preds = %27
  %30 = tail call fastcc ptr @mult(ptr noundef %.122, ptr noundef %.1)
  %.not.i = icmp eq ptr %.122, null
  br i1 %.not.i, label %Bfree.exit, label %31

31:                                               ; preds = %29
  %32 = getelementptr inbounds nuw i8, ptr %.122, i64 8
  %33 = load i32, ptr %32, align 8, !tbaa !48
  %34 = icmp sgt i32 %33, 7
  br i1 %34, label %35, label %36

35:                                               ; preds = %31
  tail call void @free(ptr noundef nonnull %.122) #13
  br label %Bfree.exit

36:                                               ; preds = %31
  %37 = sext i32 %33 to i64
  %38 = getelementptr inbounds [8 x ptr], ptr getelementptr inbounds nuw (i8, ptr @executor_globals, i64 1856), i64 0, i64 %37
  %39 = load ptr, ptr %38, align 8, !tbaa !4
  store ptr %39, ptr %.122, align 8, !tbaa !9
  store ptr %.122, ptr %38, align 8, !tbaa !4
  br label %Bfree.exit

Bfree.exit:                                       ; preds = %36, %35, %29, %27
  %.2 = phi ptr [ %.122, %27 ], [ %30, %29 ], [ %30, %35 ], [ %30, %36 ]
  %.not32 = icmp samesign ult i32 %.023, 2
  br i1 %.not32, label %.loopexit, label %40

40:                                               ; preds = %Bfree.exit
  %41 = lshr i32 %.023, 1
  %42 = load ptr, ptr %.1, align 8, !tbaa !9
  %.not33 = icmp eq ptr %42, null
  br i1 %.not33, label %43, label %27

43:                                               ; preds = %40
  %44 = tail call fastcc ptr @mult(ptr noundef nonnull %.1, ptr noundef %.1)
  store ptr %44, ptr %.1, align 8, !tbaa !9
  br label %.sink.split

.loopexit:                                        ; preds = %Bfree.exit, %10
  %.0 = phi ptr [ %.021, %10 ], [ %.2, %Bfree.exit ]
  ret ptr %.0
}